target datalayout = "e-m:e-p270:32:32-p271:32:32-p272:64:64-i64:64-i128:128-f80:128-n8:16:32:64-S128"
target triple = "x86_64-pc-linux-gnu"

%struct.AVFilterContext = type { ptr, ptr, ptr, ptr, ptr, i32, ptr, ptr, i32, ptr, ptr, i32, i32, ptr, ptr, ptr, ptr, i32, ptr, i32, i32 }
%struct.MixContext = type { ptr, ptr, i32, i32, i32, float, ptr, i32, i32, i32, i32, ptr, ptr, ptr, ptr, float, ptr, i64, ptr }
%struct.FrameList = type { i32, i32, ptr, ptr }
%struct.FrameInfo = type { i32, i64, ptr }

; Function Attrs: nounwind uwtable
define internal void @frame_list_clear(ptr noundef %0) #1 {
  %2 = alloca ptr, align 8
  %3 = alloca ptr, align 8
  store ptr %0, ptr %2, align 8, !tbaa !103
  %4 = load ptr, ptr %2, align 8, !tbaa !103
  %5 = icmp ne ptr %4, null
  br i1 %5, label %6, label %29

6:                                                ; preds = %1
  br label %7

7:                                                ; preds = %12, %6
  %8 = load ptr, ptr %2, align 8, !tbaa !103
  %9 = getelementptr inbounds nuw %struct.FrameList, ptr %8, i32 0, i32 2
  %10 = load ptr, ptr %9, align 8, !tbaa !104
  %11 = icmp ne ptr %10, null
  br i1 %11, label %12, label %22

12:                                               ; preds = %7
  call void @llvm.lifetime.start.p0(i64 8, ptr %3) #9
  %13 = load ptr, ptr %2, align 8, !tbaa !103
  %14 = getelementptr inbounds nuw %struct.FrameList, ptr %13, i32 0, i32 2
  %15 = load ptr, ptr %14, align 8, !tbaa !104
  store ptr %15, ptr %3, align 8, !tbaa !105
  %16 = load ptr, ptr %3, align 8, !tbaa !105
  %17 = getelementptr inbounds nuw %struct.FrameInfo, ptr %16, i32 0, i32 2
  %18 = load ptr, ptr %17, align 8, !tbaa !106
  %19 = load ptr, ptr %2, align 8, !tbaa !103
  %20 = getelementptr inbounds nuw %struct.FrameList, ptr %19, i32 0, i32 2
  store ptr %18, ptr %20, align 8, !tbaa !104
  %21 = load ptr, ptr %3, align 8, !tbaa !105
  call void @av_free(ptr noundef %21)
  call void @llvm.lifetime.end.p0(i64 8, ptr %3) #9
  br label %7, !llvm.loop !108

22:                                               ; preds = %7
  %23 = load ptr, ptr %2, align 8, !tbaa !103
  %24 = getelementptr inbounds nuw %struct.FrameList, ptr %23, i32 0, i32 0
  store i32 0, ptr %24, align 8, !tbaa !74
  %25 = load ptr, ptr %2, align 8, !tbaa !103
  %26 = getelementptr inbounds nuw %struct.FrameList, ptr %25, i32 0, i32 1
  store i32 0, ptr %26, align 4, !tbaa !109
  %27 = load ptr, ptr %2, align 8, !tbaa !103
  %28 = getelementptr inbounds nuw %struct.FrameList, ptr %27, i32 0, i32 3
  store ptr null, ptr %28, align 8, !tbaa !110
  br label %29

29:                                               ; preds = %22, %1
  ret void
}

; Function Attrs: cold nounwind optsize uwtable
define internal void @uninit(ptr noundef %0) #0 {
  %2 = alloca ptr, align 8
  %3 = alloca i32, align 4
  %4 = alloca ptr, align 8
  store ptr %0, ptr %2, align 8, !tbaa !4
  call void @llvm.lifetime.start.p0(i64 4, ptr %3) #9
  call void @llvm.lifetime.start.p0(i64 8, ptr %4) #9
  %5 = load ptr, ptr %2, align 8, !tbaa !4
  %6 = getelementptr inbounds nuw %struct.AVFilterContext, ptr %5, i32 0, i32 9
  %7 = load ptr, ptr %6, align 8, !tbaa !9
  store ptr %7, ptr %4, align 8, !tbaa !22
  %8 = load ptr, ptr %4, align 8, !tbaa !22
  %9 = getelementptr inbounds nuw %struct.MixContext, ptr %8, i32 0, i32 11
  %10 = load ptr, ptr %9, align 8, !tbaa !40
  %11 = icmp ne ptr %10, null
  br i1 %11, label %12, label %33

12:                                               ; preds = %1
  store i32 0, ptr %3, align 4, !tbaa !24
  br label %13

13:                                               ; preds = %27, %12
  %14 = load i32, ptr %3, align 4, !tbaa !24
  %15 = load ptr, ptr %4, align 8, !tbaa !22
  %16 = getelementptr inbounds nuw %struct.MixContext, ptr %15, i32 0, i32 2
  %17 = load i32, ptr %16, align 8, !tbaa !25
  %18 = icmp slt i32 %14, %17
  br i1 %18, label %19, label %30

19:                                               ; preds = %13
  %20 = load ptr, ptr %4, align 8, !tbaa !22
  %21 = getelementptr inbounds nuw %struct.MixContext, ptr %20, i32 0, i32 11
  %22 = load ptr, ptr %21, align 8, !tbaa !40
  %23 = load i32, ptr %3, align 4, !tbaa !24
  %24 = sext i32 %23 to i64
  %25 = getelementptr inbounds ptr, ptr %22, i64 %24
  %26 = load ptr, ptr %25, align 8, !tbaa !41
  call void @av_audio_fifo_free(ptr noundef %26)
  br label %27

27:                                               ; preds = %19
  %28 = load i32, ptr %3, align 4, !tbaa !24
  %29 = add nsw i32 %28, 1
  store i32 %29, ptr %3, align 4, !tbaa !24
  br label %13, !llvm.loop !43

30:                                               ; preds = %13
  %31 = load ptr, ptr %4, align 8, !tbaa !22
  %32 = getelementptr inbounds nuw %struct.MixContext, ptr %31, i32 0, i32 11
  call void @av_freep(ptr noundef %32)
  br label %33

33:                                               ; preds = %30, %1
  %34 = load ptr, ptr %4, align 8, !tbaa !22
  %35 = getelementptr inbounds nuw %struct.MixContext, ptr %34, i32 0, i32 18
  %36 = load ptr, ptr %35, align 8, !tbaa !44
  call void @frame_list_clear(ptr noundef %36)
  %37 = load ptr, ptr %4, align 8, !tbaa !22
  %38 = getelementptr inbounds nuw %struct.MixContext, ptr %37, i32 0, i32 18
  call void @av_freep(ptr noundef %38)
  %39 = load ptr, ptr %4, align 8, !tbaa !22
  %40 = getelementptr inbounds nuw %struct.MixContext, ptr %39, i32 0, i32 12
  call void @av_freep(ptr noundef %40)
  %41 = load ptr, ptr %4, align 8, !tbaa !22
  %42 = getelementptr inbounds nuw %struct.MixContext, ptr %41, i32 0, i32 13
  call void @av_freep(ptr noundef %42)
  %43 = load ptr, ptr %4, align 8, !tbaa !22
  %44 = getelementptr inbounds nuw %struct.MixContext, ptr %43, i32 0, i32 16
  call void @av_freep(ptr noundef %44)
  %45 = load ptr, ptr %4, align 8, !tbaa !22
  %46 = getelementptr inbounds nuw %struct.MixContext, ptr %45, i32 0, i32 14
  call void @av_freep(ptr noundef %46)
  %47 = load ptr, ptr %4, align 8, !tbaa !22
  %48 = getelementptr inbounds nuw %struct.MixContext, ptr %47, i32 0, i32 1
  call void @av_freep(ptr noundef %48)
  call void @llvm.lifetime.end.p0(i64 8, ptr %4) #9
  call void @llvm.lifetime.end.p0(i64 4, ptr %3) #9
  ret void
}