; Function Attrs: cold nounwind optsize uwtable
define internal void @uninit(ptr noundef readonly captures(none) %0) #0 {
  %2 = getelementptr inbounds nuw i8, ptr %0, i64 72
  %3 = load ptr, ptr %2, align 8, !tbaa !4
  %4 = getelementptr inbounds nuw i8, ptr %3, i64 56
  %5 = load ptr, ptr %4, align 8, !tbaa !42
  %.not = icmp eq ptr %5, null
  br i1 %.not, label %15, label %.preheader

.preheader:                                       ; preds = %1
  %6 = getelementptr inbounds nuw i8, ptr %3, i64 16
  %7 = load i32, ptr %6, align 8, !tbaa !20
  %8 = icmp sgt i32 %7, 0
  br i1 %8, label %.lr.ph, label %._crit_edge

.lr.ph:                                           ; preds = %.preheader, %.lr.ph
  %indvars.iv = phi i64 [ %indvars.iv.next, %.lr.ph ], [ 0, %.preheader ]
  %9 = load ptr, ptr %4, align 8, !tbaa !42
  %10 = getelementptr inbounds nuw ptr, ptr %9, i64 %indvars.iv
  %11 = load ptr, ptr %10, align 8, !tbaa !43
  tail call void @av_audio_fifo_free(ptr noundef %11) #9
  %indvars.iv.next = add nuw nsw i64 %indvars.iv, 1
  %12 = load i32, ptr %6, align 8, !tbaa !20
  %13 = sext i32 %12 to i64
  %14 = icmp slt i64 %indvars.iv.next, %13
  br i1 %14, label %.lr.ph, label %._crit_edge, !llvm.loop !45

._crit_edge:                                      ; preds = %.lr.ph, %.preheader
  tail call void @av_freep(ptr noundef nonnull %4) #9
  br label %15

15:                                               ; preds = %._crit_edge, %1
  %16 = getelementptr inbounds nuw i8, ptr %3, i64 112
  %17 = load ptr, ptr %16, align 8, !tbaa !46
  %.not.i = icmp eq ptr %17, null
  br i1 %.not.i, label %frame_list_clear.exit, label %.preheader.i

.preheader.i:                                     ; preds = %15
  %18 = getelementptr inbounds nuw i8, ptr %17, i64 8
  %19 = load ptr, ptr %18, align 8, !tbaa !47
  %.not910.i = icmp eq ptr %19, null
  br i1 %.not910.i, label %._crit_edge.i, label %.lr.ph.i

.lr.ph.i:                                         ; preds = %.preheader.i, %.lr.ph.i
  %20 = phi ptr [ %23, %.lr.ph.i ], [ %19, %.preheader.i ]
  %21 = getelementptr inbounds nuw i8, ptr %20, i64 16
  %22 = load ptr, ptr %21, align 8, !tbaa !50
  store ptr %22, ptr %18, align 8, !tbaa !47
  tail call void @av_free(ptr noundef nonnull %20) #9
  %23 = load ptr, ptr %18, align 8, !tbaa !47
  %.not9.i = icmp eq ptr %23, null
  br i1 %.not9.i, label %._crit_edge.i, label %.lr.ph.i, !llvm.loop !52

._crit_edge.i:                                    ; preds = %.lr.ph.i, %.preheader.i
  store i32 0, ptr %17, align 8, !tbaa !53
  %24 = getelementptr inbounds nuw i8, ptr %17, i64 4
  store i32 0, ptr %24, align 4, !tbaa !54
  %25 = getelementptr inbounds nuw i8, ptr %17, i64 16
  store ptr null, ptr %25, align 8, !tbaa !55
  br label %frame_list_clear.exit

frame_list_clear.exit:                            ; preds = %15, %._crit_edge.i
  tail call void @av_freep(ptr noundef nonnull %16) #9
  %26 = getelementptr inbounds nuw i8, ptr %3, i64 64
  tail call void @av_freep(ptr noundef nonnull %26) #9
  %27 = getelementptr inbounds nuw i8, ptr %3, i64 72
  tail call void @av_freep(ptr noundef nonnull %27) #9
  %28 = getelementptr inbounds nuw i8, ptr %3, i64 96
  tail call void @av_freep(ptr noundef nonnull %28) #9
  %29 = getelementptr inbounds nuw i8, ptr %3, i64 80
  tail call void @av_freep(ptr noundef nonnull %29) #9
  %30 = getelementptr inbounds nuw i8, ptr %3, i64 8
  tail call void @av_freep(ptr noundef nonnull %30) #9
  ret void
}